target datalayout = "e-m:e-p270:32:32-p271:32:32-p272:64:64-i64:64-i128:128-f80:128-n8:16:32:64-S128"
target triple = "x86_64-pc-linux-gnu"

%struct.CatalogId = type { i32, i32 }
%struct._dumpableObject = type { i32, %struct.CatalogId, i32, ptr, ptr, i32, i32, i32, i8, i8, ptr, i32, i32 }
%struct.SimplePtrList = type { ptr, ptr }
%struct._indxInfo = type { %struct._dumpableObject, ptr, ptr, ptr, ptr, ptr, ptr, i32, i32, ptr, i8, i8, i8, i32, %struct.SimplePtrList, i32 }
%struct.SimplePtrListCell = type { ptr, ptr }
%struct._indexAttachInfo = type { %struct._dumpableObject, ptr, ptr }

; Function Attrs: nounwind uwtable
define internal void @addConstrChildIdxDeps(ptr noundef %0, ptr noundef %1) #0 {
  %3 = alloca ptr, align 8
  %4 = alloca ptr, align 8
  %5 = alloca ptr, align 8
  %6 = alloca ptr, align 8
  store ptr %0, ptr %3, align 8
  store ptr %1, ptr %4, align 8
  call void @llvm.lifetime.start.p0(i64 8, ptr %5) #10
  %7 = load ptr, ptr %4, align 8
  %8 = getelementptr inbounds nuw %struct._indxInfo, ptr %7, i32 0, i32 14
  %9 = getelementptr inbounds nuw %struct.SimplePtrList, ptr %8, i32 0, i32 0
  %10 = load ptr, ptr %9, align 8
  store ptr %10, ptr %5, align 8
  br label %11

11:                                               ; preds = %36, %2
  %12 = load ptr, ptr %5, align 8
  %13 = icmp ne ptr %12, null
  br i1 %13, label %14, label %40

14:                                               ; preds = %11
  call void @llvm.lifetime.start.p0(i64 8, ptr %6) #10
  %15 = load ptr, ptr %5, align 8
  %16 = getelementptr inbounds nuw %struct.SimplePtrListCell, ptr %15, i32 0, i32 1
  %17 = load ptr, ptr %16, align 8
  store ptr %17, ptr %6, align 8
  %18 = load ptr, ptr %3, align 8
  %19 = load ptr, ptr %6, align 8
  %20 = getelementptr inbounds nuw %struct._indexAttachInfo, ptr %19, i32 0, i32 0
  %21 = getelementptr inbounds nuw %struct._dumpableObject, ptr %20, i32 0, i32 2
  %22 = load i32, ptr %21, align 4
  call void @addObjectDependency(ptr noundef %18, i32 noundef %22)
  %23 = load ptr, ptr %6, align 8
  %24 = getelementptr inbounds nuw %struct._indexAttachInfo, ptr %23, i32 0, i32 2
  %25 = load ptr, ptr %24, align 8
  %26 = getelementptr inbounds nuw %struct._indxInfo, ptr %25, i32 0, i32 14
  %27 = getelementptr inbounds nuw %struct.SimplePtrList, ptr %26, i32 0, i32 0
  %28 = load ptr, ptr %27, align 8
  %29 = icmp ne ptr %28, null
  br i1 %29, label %30, label %35

30:                                               ; preds = %14
  %31 = load ptr, ptr %3, align 8
  %32 = load ptr, ptr %6, align 8
  %33 = getelementptr inbounds nuw %struct._indexAttachInfo, ptr %32, i32 0, i32 2
  %34 = load ptr, ptr %33, align 8
  call void @addConstrChildIdxDeps(ptr noundef %31, ptr noundef %34)
  br label %35

35:                                               ; preds = %30, %14
  call void @llvm.lifetime.end.p0(i64 8, ptr %6) #10
  br label %36

36:                                               ; preds = %35
  %37 = load ptr, ptr %5, align 8
  %38 = getelementptr inbounds nuw %struct.SimplePtrListCell, ptr %37, i32 0, i32 0
  %39 = load ptr, ptr %38, align 8
  store ptr %39, ptr %5, align 8
  br label %11, !llvm.loop !71

40:                                               ; preds = %11
  call void @llvm.lifetime.end.p0(i64 8, ptr %5) #10
  ret void
}