; Function Attrs: nounwind uwtable
define internal fastcc void @addConstrChildIdxDeps(ptr noundef %0, ptr noundef readonly captures(none) %1) unnamed_addr #5 {
  %3 = getelementptr inbounds nuw i8, ptr %1, i64 136
  %.010 = load ptr, ptr %3, align 8
  %.not11 = icmp eq ptr %.010, null
  br i1 %.not11, label %._crit_edge, label %.lr.ph

.lr.ph:                                           ; preds = %2, %13
  %.012 = phi ptr [ %.0, %13 ], [ %.010, %2 ]
  %4 = getelementptr inbounds nuw i8, ptr %.012, i64 8
  %5 = load ptr, ptr %4, align 8
  %6 = getelementptr inbounds nuw i8, ptr %5, i64 12
  %7 = load i32, ptr %6, align 4
  tail call void @addObjectDependency(ptr noundef %0, i32 noundef %7) #14
  %8 = getelementptr inbounds nuw i8, ptr %5, i64 72
  %9 = load ptr, ptr %8, align 8
  %10 = getelementptr inbounds nuw i8, ptr %9, i64 136
  %11 = load ptr, ptr %10, align 8
  %.not9 = icmp eq ptr %11, null
  br i1 %.not9, label %13, label %12

12:                                               ; preds = %.lr.ph
  tail call fastcc void @addConstrChildIdxDeps(ptr noundef %0, ptr noundef nonnull %9)
  br label %13

13:                                               ; preds = %12, %.lr.ph
  %.0 = load ptr, ptr %.012, align 8
  %.not = icmp eq ptr %.0, null
  br i1 %.not, label %._crit_edge, label %.lr.ph, !llvm.loop !93

._crit_edge:                                      ; preds = %13, %2
  ret void
}